; Function Attrs: mustprogress nofree norecurse nosync nounwind willreturn memory(read, inaccessiblemem: none) uwtable
define range(i32 -1, 2) i32 @Fraig_NodeVecCompareRefCounts(ptr noundef readonly captures(none) %0, ptr noundef readonly captures(none) %1) #13 {
  %3 = load ptr, ptr %0, align 8, !tbaa !12
  %4 = ptrtoint ptr %3 to i64
  %5 = and i64 %4, -2
  %6 = inttoptr i64 %5 to ptr
  %7 = getelementptr inbounds nuw i8, ptr %6, i64 12
  %8 = load i32, ptr %7, align 4, !tbaa !27
  %9 = load ptr, ptr %1, align 8, !tbaa !12
  %10 = ptrtoint ptr %9 to i64
  %11 = and i64 %10, -2
  %12 = inttoptr i64 %11 to ptr
  %13 = getelementptr inbounds nuw i8, ptr %12, i64 12
  %14 = load i32, ptr %13, align 4, !tbaa !27
  %15 = icmp slt i32 %8, %14
  br i1 %15, label %26, label %16

16:                                               ; preds = %2
  %17 = icmp sgt i32 %8, %14
  br i1 %17, label %26, label %18

18:                                               ; preds = %16
  %19 = getelementptr inbounds nuw i8, ptr %6, i64 8
  %20 = load i32, ptr %19, align 8, !tbaa !18
  %21 = getelementptr inbounds nuw i8, ptr %12, i64 8
  %22 = load i32, ptr %21, align 8, !tbaa !18
  %23 = icmp slt i32 %20, %22
  br i1 %23, label %26, label %24

24:                                               ; preds = %18
  %25 = icmp sgt i32 %20, %22
  %. = zext i1 %25 to i32
  br label %26

26:                                               ; preds = %24, %18, %16, %2
  %.0 = phi i32 [ -1, %2 ], [ 1, %16 ], [ -1, %18 ], [ %., %24 ]
  ret i32 %.0
}